(lp1
(idata_structure
Node
p2
(dp3
S'latitude'
p4
F30.612888819999998
sS'id'
p5
L10L
sS'longitude'
p6
F-96.342160039999996
sS'name'
p7
S'MSC'
p8
sba(idata_structure
Node
p9
(dp10
g4
F30.62488098
sg5
L14L
sg6
F-96.352485200000004
sg7
S'Aggie Station'
p11
sba(idata_structure
Node
p12
(dp13
g4
F30.628406739999999
sg5
L17L
sg6
F-96.359732530000002
sg7
S'Reveille Ranch'
p14
sba(idata_structure
Node
p15
(dp16
g4
F30.632967839999999
sg5
L42L
sg6
F-96.321485569999993
sg7
S'Munson'
p17
sba(idata_structure
Node
p18
(dp19
g4
F30.646660520000001
sg5
L47L
sg6
F-96.333489799999995
sg7
S'Carter Creek Shopping Center'
p20
sba(idata_structure
Node
p21
(dp22
g4
F30.663250000000001
sg5
L50L
sg6
F-96.351852780000002
sg7
S'Blinn College - Bldg E'
p23
sba(idata_structure
Node
p24
(dp25
g4
F30.646629669999999
sg5
L52L
sg6
F-96.333656090000005
sg7
S'Willow Oaks'
p26
sba(idata_structure
Node
p27
(dp28
g4
F30.611907129999999
sg5
L91L
sg6
F-96.318511000000001
sg7
S'HEB'
p29
sba(idata_structure
Node
p30
(dp31
g4
F30.61160538
sg5
L93L
sg6
F-96.324065849999997
sg7
S'Scandia'
p32
sba(idata_structure
Node
p33
(dp34
g4
F30.612520020000002
sg5
L94L
sg6
F-96.325191040000007
sg7
S'Taos'
p35
sba(idata_structure
Node
p36
(dp37
g4
F30.627531000000001
sg5
L96L
sg6
F-96.306485309999999
sg7
S'Plantation Oaks'
p38
sba(idata_structure
Node
p39
(dp40
g4
F30.620306469999999
sg5
L100L
sg6
F-96.317094789999999
sg7
S'The Cambridge'
p41
sba(idata_structure
Node
p42
(dp43
g4
F30.608023289999998
sg5
L101L
sg6
F-96.312830079999998
sg7
S'Redstone'
p44
sba(idata_structure
Node
p45
(dp46
g4
F30.62122244
sg5
L112L
sg6
F-96.338386170000007
sg7
S'Wisenbaker'
p47
sba(idata_structure
Node
p48
(dp49
g4
F30.627485400000001
sg5
L115L
sg6
F-96.34074785
sg7
S'Community Center'
p50
sba(idata_structure
Node
p51
(dp52
g4
F30.620867050000001
sg5
L116L
sg6
F-96.338391529999996
sg7
S'WERC'
p53
sba(idata_structure
Node
p54
(dp55
g4
F30.614610800000001
sg5
L120L
sg6
F-96.339039290000002
sg7
S'Trigon'
p56
sba(idata_structure
Node
p57
(dp58
g4
F30.582777780000001
sg5
L123L
sg6
F-96.318566669999996
sg7
S'Westridge @ Antelope'
p59
sba(idata_structure
Node
p60
(dp61
g4
F30.583692970000001
sg5
L126L
sg6
F-96.312046870000003
sg7
S'Welsh @ San Benito'
p62
sba(idata_structure
Node
p63
(dp64
g4
F30.576118409999999
sg5
L129L
sg6
F-96.314471589999997
sg7
S'Fraternity Row #2'
p65
sba(idata_structure
Node
p66
(dp67
g4
F30.60619805
sg5
L134L
sg6
F-96.313440279999995
sg7
S'Brentwood'
p68
sba(idata_structure
Node
p69
(dp70
g4
F30.61759722
sg5
L140L
sg6
F-96.302063889999999
sg7
S'Trails @ Wolf Pen Creek'
p71
sba(idata_structure
Node
p72
(dp73
g4
F30.620711480000001
sg5
L156L
sg6
F-96.304521940000001
sg7
S'Mall Park - n - Ride'
p74
sba(idata_structure
Node
p75
(dp76
g4
F30.601518939999998
sg5
L169L
sg6
F-96.338929320000005
sg7
S'Treehouse'
p77
sba(idata_structure
Node
p78
(dp79
g4
F30.595939940000001
sg5
L170L
sg6
F-96.336586409999995
sg7
S'Meadows Point 1'
p80
sba(idata_structure
Node
p81
(dp82
g4
F30.58412079
sg5
L174L
sg6
F-96.336929729999994
sg7
S'Holleman South'
p83
sba(idata_structure
Node
p84
(dp85
g4
F30.596094170000001
sg5
L178L
sg6
F-96.336487160000004
sg7
S'U-Club'
p86
sba(idata_structure
Node
p87
(dp88
g4
F30.620022219999999
sg5
L180L
sg6
F-96.317258330000001
sg7
S'Campus View'
p89
sba(idata_structure
Node
p90
(dp91
g4
F30.590893359999999
sg5
L186L
sg6
F-96.335470610000002
sg7
S'Jones Butler South'
p92
sba(idata_structure
Node
p93
(dp94
g4
F30.58988888
sg5
L187L
sg6
F-96.346541430000002
sg7
S'The Heights'
p95
sba(idata_structure
Node
p96
(dp97
g4
F30.598077660000001
sg5
L195L
sg6
F-96.306876919999993
sg7
S'Doux Chene/Valley View'
p98
sba(idata_structure
Node
p99
(dp100
g4
F30.593666769999999
sg5
L199L
sg6
F-96.295788659999999
sg7
S'Peppertree'
p101
sba(idata_structure
Node
p102
(dp103
g4
F30.582999619999999
sg5
L203L
sg6
F-96.299600080000005
sg7
S'Ponderosa @ Brothers Pond Park'
p104
sba(idata_structure
Node
p105
(dp106
g4
F30.609291979999998
sg5
L206L
sg6
F-96.353536629999994
sg7
S'Rural Public Health'
p107
sba(idata_structure
Node
p108
(dp109
g4
F30.597849669999999
sg5
L208L
sg6
F-96.330995340000001
sg7
S'Oney Hervey'
p110
sba(idata_structure
Node
p111
(dp112
g4
F30.597369560000001
sg5
L210L
sg6
F-96.324904040000007
sg7
S'University Park'
p113
sba(idata_structure
Node
p114
(dp115
g4
F30.593516560000001
sg5
L214L
sg6
F-96.326800370000001
sg7
S'Parkway Circle'
p116
sba.