(lp1
(idata_structure
Node
p2
(dp3
S'latitude'
p4
F30.605677700000001
sS'id'
p5
L1L
sS'longitude'
p6
F-96.3473367
sS'name'
p7
S'Reed Arena'
p8
sba(idata_structure
Node
p9
(dp10
g4
F30.606817639999999
sg5
L2L
sg6
F-96.347143579999994
sg7
S'Lot 100a/b'
p11
sba(idata_structure
Node
p12
(dp13
g4
F30.611802529999999
sg5
L3L
sg6
F-96.340772999999999
sg7
S'Koldus'
p14
sba(idata_structure
Node
p15
(dp16
g4
F30.615159309999999
sg5
L4L
sg6
F-96.337330719999997
sg7
S'Commons'
p17
sba(idata_structure
Node
p18
(dp19
g4
F30.619056560000001
sg5
L5L
sg6
F-96.339318239999997
sg7
S'Ross and Spence'
p20
sba(idata_structure
Node
p21
(dp22
g4
F30.617824079999998
sg5
L6L
sg6
F-96.341116659999997
sg7
S'Ross and Ireland'
p23
sba(idata_structure
Node
p24
(dp25
g4
F30.617761049999999
sg5
L7L
sg6
F-96.343318749999995
sg7
S'Asbury Water Tower'
p26
sba(idata_structure
Node
p27
(dp28
g4
F30.612080129999999
sg5
L8L
sg6
F-96.348655010000002
sg7
S'Wehner'
p29
sba(idata_structure
Node
p30
(dp31
g4
F30.609853900000001
sg5
L9L
sg6
F-96.34690621
sg7
S'Kleberg'
p32
sba(idata_structure
Node
p33
(dp34
g4
F30.612888819999998
sg5
L10L
sg6
F-96.342160039999996
sg7
S'MSC'
p35
sba(idata_structure
Node
p36
(dp37
g4
F30.616368990000002
sg5
L11L
sg6
F-96.343101489999995
sg7
S'Fish Pond'
p38
sba(idata_structure
Node
p39
(dp40
g4
F30.619529969999999
sg5
L12L
sg6
F-96.346750639999996
sg7
S'College Main Parking Garage'
p41
sba(idata_structure
Node
p42
(dp43
g4
F30.621949319999999
sg5
L13L
sg6
F-96.349269230000004
sg7
S'Spruce St.'
p44
sba(idata_structure
Node
p45
(dp46
g4
F30.62488098
sg5
L14L
sg6
F-96.352485200000004
sg7
S'Aggie Station'
p47
sba(idata_structure
Node
p48
(dp49
g4
F30.626093340000001
sg5
L15L
sg6
F-96.355840639999997
sg7
S'Village on the Creek'
p50
sba(idata_structure
Node
p51
(dp52
g4
F30.627032109999998
sg5
L16L
sg6
F-96.358450430000005
sg7
S'The Islands'
p53
sba(idata_structure
Node
p54
(dp55
g4
F30.628406739999999
sg5
L17L
sg6
F-96.359732530000002
sg7
S'Reveille Ranch'
p56
sba(idata_structure
Node
p57
(dp58
g4
F30.632936990000001
sg5
L18L
sg6
F-96.363869840000007
sg7
S'Wellborn @ Tee'
p59
sba(idata_structure
Node
p60
(dp61
g4
F30.637999659999998
sg5
L19L
sg6
F-96.361716020000003
sg7
S'Villa Maria @ Green St.'
p62
sba(idata_structure
Node
p63
(dp64
g4
F30.634575000000002
sg5
L20L
sg6
F-96.354624999999999
sg7
S'Blinn Athletics'
p65
sba(idata_structure
Node
p66
(dp67
g4
F30.631094310000002
sg5
L21L
sg6
F-96.354562569999999
sg7
S'Academic Village'
p68
sba(idata_structure
Node
p69
(dp70
g4
F30.615760120000001
sg5
L27L
sg6
F-96.343148429999999
sg7
S'Beutel'
p71
sba(idata_structure
Node
p72
(dp73
g4
F30.612131099999999
sg5
L28L
sg6
F-96.34953075
sg7
S'Wehner N'
p74
sba(idata_structure
Node
p75
(dp76
g4
F30.61516602
sg5
L29L
sg6
F-96.352058729999996
sg7
S'Vet School'
p77
sba(idata_structure
Node
p78
(dp79
g4
F30.617816040000001
sg5
L30L
sg6
F-96.354498199999995
sg7
S'Transit'
p80
sba(idata_structure
Node
p81
(dp82
g4
F30.619812939999999
sg5
L31L
sg6
F-96.356343559999999
sg7
S'Facilities Services'
p83
sba(idata_structure
Node
p84
(dp85
g4
F30.62207136
sg5
L32L
sg6
F-96.358191599999998
sg7
S'GSC'
p86
sba(idata_structure
Node
p87
(dp88
g4
F30.615805720000001
sg5
L35L
sg6
F-96.352721239999994
sg7
S'Lot 71'
p89
sba(idata_structure
Node
p90
(dp91
g4
F30.62567357
sg5
L39L
sg6
F-96.329502689999998
sg7
S'Foster'
p92
sba(idata_structure
Node
p93
(dp94
g4
F30.627345930000001
sg5
L40L
sg6
F-96.327673419999996
sg7
S'University Square'
p95
sba(idata_structure
Node
p96
(dp97
g4
F30.6301086
sg5
L41L
sg6
F-96.324657279999997
sg7
S'Tarrow'
p98
sba(idata_structure
Node
p99
(dp100
g4
F30.632967839999999
sg5
L42L
sg6
F-96.321485569999993
sg7
S'Munson'
p101
sba(idata_structure
Node
p102
(dp103
g4
F30.637540999999999
sg5
L43L
sg6
F-96.319728720000001
sg7
S'April Bloom'
p104
sba(idata_structure
Node
p105
(dp106
g4
F30.638200829999999
sg5
L44L
sg6
F-96.322700609999998
sg7
S'Summer Court'
p107
sba(idata_structure
Node
p108
(dp109
g4
F30.63773278
sg5
L45L
sg6
F-96.327774009999999
sg7
S'Laurel Ridge'
p110
sba(idata_structure
Node
p111
(dp112
g4
F30.641031900000002
sg5
L46L
sg6
F-96.329178139999996
sg7
S'Royal Oaks Garden'
p113
sba(idata_structure
Node
p114
(dp115
g4
F30.646660520000001
sg5
L47L
sg6
F-96.333489799999995
sg7
S'Carter Creek Shopping Center'
p116
sba(idata_structure
Node
p117
(dp118
g4
F30.6561837
sg5
L48L
sg6
F-96.343438109999994
sg7
S'Broadmoor St.'
p119
sba(idata_structure
Node
p120
(dp121
g4
F30.661859249999999
sg5
L49L
sg6
F-96.355088280000004
sg7
S'Hollow Hill'
p122
sba(idata_structure
Node
p123
(dp124
g4
F30.663250000000001
sg5
L50L
sg6
F-96.351852780000002
sg7
S'Blinn College - Bldg E'
p125
sba(idata_structure
Node
p126
(dp127
g4
F30.646629669999999
sg5
L52L
sg6
F-96.333656090000005
sg7
S'Willow Oaks'
p128
sba(idata_structure
Node
p129
(dp130
g4
F30.60798574
sg5
L63L
sg6
F-96.345856119999993
sg7
S'West Campus Garage'
p131
sba(idata_structure
Node
p132
(dp133
g4
F30.606763999999998
sg5
L64L
sg6
F-96.344741659999997
sg7
S'Reed Arena 2'
p134
sba(idata_structure
Node
p135
(dp136
g4
F30.604665170000001
sg5
L65L
sg6
F-96.341938749999997
sg7
S'Blue Bell Park'
p137
sba(idata_structure
Node
p138
(dp139
g4
F30.607006739999999
sg5
L66L
sg6
F-96.344658510000002
sg7
S'Student Rec Center'
p140
sba(idata_structure
Node
p141
(dp142
g4
F30.605270000000001
sg5
L72L
sg6
F-96.350554009999996
sg7
S'Ag Building'
p143
sba(idata_structure
Node
p144
(dp145
g4
F30.602170709999999
sg5
L73L
sg6
F-96.35311686
sg7
S'TTI'
p146
sba(idata_structure
Node
p147
(dp148
g4
F30.599186750000001
sg5
L74L
sg6
F-96.352773540000001
sg7
S'Bush School'
p149
sba(idata_structure
Node
p150
(dp151
g4
F30.601571239999998
sg5
L75L
sg6
F-96.357594809999995
sg7
S'Centeq 1'
p152
sba(idata_structure
Node
p153
(dp154
g4
F30.605793039999998
sg5
L76L
sg6
F-96.355600589999995
sg7
S'Discovery #1'
p155
sba(idata_structure
Node
p156
(dp157
g4
F30.609169940000001
sg5
L77L
sg6
F-96.360960980000002
sg7
S'NCTM'
p158
sba(idata_structure
Node
p159
(dp160
g4
F30.60569379
sg5
L78L
sg6
F-96.355608630000006
sg7
S'Discovery #2'
p161
sba(idata_structure
Node
p162
(dp163
g4
F30.601203779999999
sg5
L79L
sg6
F-96.358258660000004
sg7
S'Centeq 2'
p164
sba(idata_structure
Node
p165
(dp166
g4
F30.598117890000001
sg5
L80L
sg6
F-96.355199600000006
sg7
S'Lot 41/43'
p167
sba(idata_structure
Node
p168
(dp169
g4
F30.612021129999999
sg5
L84L
sg6
F-96.348748880000002
sg7
S'Wehner S'
p170
sba(idata_structure
Node
p171
(dp172
g4
F30.614445839999998
sg5
L85L
sg6
F-96.342591870000007
sg7
S'MSC temp'
p173
sba(idata_structure
Node
p174
(dp175
g4
F30.619834399999998
sg5
L89L
sg6
F-96.338061620000005
sg7
S'Ross and Bizzell'
p176
sba(idata_structure
Node
p177
(dp178
g4
F30.613824910000002
sg5
L90L
sg6
F-96.343706330000003
sg7
S'458 Old Main Dr'
p179
sba(idata_structure
Node
p180
(dp181
g4
F30.611907129999999
sg5
L91L
sg6
F-96.318511000000001
sg7
S'HEB'
p182
sba(idata_structure
Node
p183
(dp184
g4
F30.61081815
sg5
L92L
sg6
F-96.320265160000005
sg7
S'Village'
p185
sba(idata_structure
Node
p186
(dp187
g4
F30.61160538
sg5
L93L
sg6
F-96.324065849999997
sg7
S'Scandia'
p188
sba(idata_structure
Node
p189
(dp190
g4
F30.612520020000002
sg5
L94L
sg6
F-96.325191040000007
sg7
S'Taos'
p191
sba(idata_structure
Node
p192
(dp193
g4
F30.613364910000001
sg5
L95L
sg6
F-96.338765699999996
sg7
S'Joe Routt Blvd'
p194
sba(idata_structure
Node
p195
(dp196
g4
F30.627531000000001
sg5
L96L
sg6
F-96.306485309999999
sg7
S'Plantation Oaks'
p197
sba(idata_structure
Node
p198
(dp199
g4
F30.62648226
sg5
L97L
sg6
F-96.309795159999993
sg7
S'Briarwood'
p200
sba(idata_structure
Node
p201
(dp202
g4
F30.624072290000001
sg5
L98L
sg6
F-96.312824710000001
sg7
S'Cripple Creek'
p203
sba(idata_structure
Node
p204
(dp205
g4
F30.621559059999999
sg5
L99L
sg6
F-96.315650419999997
sg7
S'Polo Club'
p206
sba(idata_structure
Node
p207
(dp208
g4
F30.620306469999999
sg5
L100L
sg6
F-96.317094789999999
sg7
S'The Cambridge'
p209
sba(idata_structure
Node
p210
(dp211
g4
F30.608023289999998
sg5
L101L
sg6
F-96.312830079999998
sg7
S'Redstone'
p212
sba(idata_structure
Node
p213
(dp214
g4
F30.606431400000002
sg5
L102L
sg6
F-96.315706750000004
sg7
S'Denver'
p215
sba(idata_structure
Node
p216
(dp217
g4
F30.607131460000002
sg5
L103L
sg6
F-96.317625870000001
sg7
S'Lemon Tree'
p218
sba(idata_structure
Node
p219
(dp220
g4
F30.609014370000001
sg5
L104L
sg6
F-96.32052668
sg7
S'Lexington'
p221
sba(idata_structure
Node
p222
(dp223
g4
F30.62122244
sg5
L112L
sg6
F-96.338386170000007
sg7
S'Wisenbaker'
p224
sba(idata_structure
Node
p225
(dp226
g4
F30.626785349999999
sg5
L113L
sg6
F-96.343136360000003
sg7
S'Hensel @ Ball'
p227
sba(idata_structure
Node
p228
(dp229
g4
F30.628763469999999
sg5
L114L
sg6
F-96.341954849999993
sg7
S'Hensel @ W-X Row'
p230
sba(idata_structure
Node
p231
(dp232
g4
F30.627485400000001
sg5
L115L
sg6
F-96.34074785
sg7
S'Community Center'
p233
sba(idata_structure
Node
p234
(dp235
g4
F30.620867050000001
sg5
L116L
sg6
F-96.338391529999996
sg7
S'WERC'
p236
sba(idata_structure
Node
p237
(dp238
g4
F30.614610800000001
sg5
L120L
sg6
F-96.339039290000002
sg7
S'Trigon'
p239
sba(idata_structure
Node
p240
(dp241
g4
F30.587460140000001
sg5
L121L
sg6
F-96.314977189999993
sg7
S'Welsh @ First Baptist'
p242
sba(idata_structure
Node
p243
(dp244
g4
F30.584791670000001
sg5
L122L
sg6
F-96.317269440000004
sg7
S'Westridge @ Pintail'
p245
sba(idata_structure
Node
p246
(dp247
g4
F30.582777780000001
sg5
L123L
sg6
F-96.318566669999996
sg7
S'Westridge @ Antelope'
p248
sba(idata_structure
Node
p249
(dp250
g4
F30.581579390000002
sg5
L124L
sg6
F-96.316365230000002
sg7
S'Navarro @ Antelope'
p251
sba(idata_structure
Node
p252
(dp253
g4
F30.58366749
sg5
L125L
sg6
F-96.315108620000004
sg7
S'Navarro @ Pintail'
p254
sba(idata_structure
Node
p255
(dp256
g4
F30.583692970000001
sg5
L126L
sg6
F-96.312046870000003
sg7
S'Welsh @ San Benito'
p257
sba(idata_structure
Node
p258
(dp259
g4
F30.580573560000001
sg5
L127L
sg6
F-96.311313290000001
sg7
S'Deacon @ Aztec'
p260
sba(idata_structure
Node
p261
(dp262
g4
F30.57734687
sg5
L128L
sg6
F-96.313996840000001
sg7
S'Fraternity Row #1'
p263
sba(idata_structure
Node
p264
(dp265
g4
F30.576118409999999
sg5
L129L
sg6
F-96.314471589999997
sg7
S'Fraternity Row #2'
p266
sba(idata_structure
Node
p267
(dp268
g4
F30.60619805
sg5
L134L
sg6
F-96.313440279999995
sg7
S'Brentwood'
p269
sba(idata_structure
Node
p270
(dp271
g4
F30.60565222
sg5
L135L
sg6
F-96.310792939999999
sg7
S'Kroger'
p272
sba(idata_structure
Node
p273
(dp274
g4
F30.609503870000001
sg5
L136L
sg6
F-96.306571140000003
sg7
S'Southwest Parkway @ Cornell'
p275
sba(idata_structure
Node
p276
(dp277
g4
F30.61214167
sg5
L137L
sg6
F-96.303586109999998
sg7
S'Southwest Parkway @ Dartmouth'
p278
sba(idata_structure
Node
p279
(dp280
g4
F30.613438890000001
sg5
L138L
sg6
F-96.302105560000001
sg7
S'Hickory Park'
p281
sba(idata_structure
Node
p282
(dp283
g4
F30.61550531
sg5
L139L
sg6
F-96.299747600000003
sg7
S'Eastmark/Windsor Point'
p284
sba(idata_structure
Node
p285
(dp286
g4
F30.61759722
sg5
L140L
sg6
F-96.302063889999999
sg7
S'Trails @ Wolf Pen Creek'
p287
sba(idata_structure
Node
p288
(dp289
g4
F30.61573611
sg5
L141L
sg6
F-96.303891669999999
sg7
S'Carnation'
p290
sba(idata_structure
Node
p291
(dp292
g4
F30.611730560000002
sg5
L143L
sg6
F-96.30793611
sg7
S'Brentwood @ Cornell'
p293
sba(idata_structure
Node
p294
(dp295
g4
F30.611838729999999
sg5
L152L
sg6
F-96.318429190000003
sg7
S'Enclave'
p296
sba(idata_structure
Node
p297
(dp298
g4
F30.61616111
sg5
L153L
sg6
F-96.312077720000005
sg7
S'Arbors @ Wolf Pen Creek'
p299
sba(idata_structure
Node
p300
(dp301
g4
F30.617789219999999
sg5
L154L
sg6
F-96.310107639999998
sg7
S'River Oaks Townhomes'
p302
sba(idata_structure
Node
p303
(dp304
g4
F30.61837126
sg5
L155L
sg6
F-96.308034289999995
sg7
S'Lofts @ Wolf Pen Creek'
p305
sba(idata_structure
Node
p306
(dp307
g4
F30.620711480000001
sg5
L156L
sg6
F-96.304521940000001
sg7
S'Mall Park - n - Ride'
p308
sba(idata_structure
Node
p309
(dp310
g4
F30.601518939999998
sg5
L169L
sg6
F-96.338929320000005
sg7
S'Treehouse'
p311
sba(idata_structure
Node
p312
(dp313
g4
F30.595939940000001
sg5
L170L
sg6
F-96.336586409999995
sg7
S'Meadows Point 1'
p314
sba(idata_structure
Node
p315
(dp316
g4
F30.59402618
sg5
L171L
sg6
F-96.336802320000004
sg7
S'Meadows Point'
p317
sba(idata_structure
Node
p318
(dp319
g4
F30.592776270000002
sg5
L172L
sg6
F-96.338230600000003
sg7
S'Gridiron'
p320
sba(idata_structure
Node
p321
(dp322
g4
F30.589766839999999
sg5
L173L
sg6
F-96.338056260000002
sg7
S'The Zone'
p323
sba(idata_structure
Node
p324
(dp325
g4
F30.58412079
sg5
L174L
sg6
F-96.336929729999994
sg7
S'Holleman South'
p326
sba(idata_structure
Node
p327
(dp328
g4
F30.589766839999999
sg5
L175L
sg6
F-96.337985180000004
sg7
S'Walden Pond'
p329
sba(idata_structure
Node
p330
(dp331
g4
F30.59396315
sg5
L177L
sg6
F-96.336752700000005
sg7
S'Gateway'
p332
sba(idata_structure
Node
p333
(dp334
g4
F30.596094170000001
sg5
L178L
sg6
F-96.336487160000004
sg7
S'U-Club'
p335
sba(idata_structure
Node
p336
(dp337
g4
F30.601640979999999
sg5
L179L
sg6
F-96.338932
sg7
S'Callaway Villas'
p338
sba(idata_structure
Node
p339
(dp340
g4
F30.620022219999999
sg5
L180L
sg6
F-96.317258330000001
sg7
S'Campus View'
p341
sba(idata_structure
Node
p342
(dp343
g4
F30.593952420000001
sg5
L185L
sg6
F-96.339314209999998
sg7
S'Woodsman'
p344
sba(idata_structure
Node
p345
(dp346
g4
F30.590893359999999
sg5
L186L
sg6
F-96.335470610000002
sg7
S'Jones Butler South'
p347
sba(idata_structure
Node
p348
(dp349
g4
F30.58988888
sg5
L187L
sg6
F-96.346541430000002
sg7
S'The Heights'
p350
sba(idata_structure
Node
p351
(dp352
g4
F30.591966249999999
sg5
L188L
sg6
F-96.344205220000006
sg7
S'Fox Run'
p353
sba(idata_structure
Node
p354
(dp355
g4
F30.593922920000001
sg5
L189L
sg6
F-96.342042019999994
sg7
S'The District'
p356
sba(idata_structure
Node
p357
(dp358
g4
F30.595363890000002
sg5
L190L
sg6
F-96.340436109999999
sg7
S'West Luther @ Jones'
p359
sba(idata_structure
Node
p360
(dp361
g4
F30.6085423
sg5
L192L
sg6
F-96.312241330000006
sg7
S'1809 Brentwood Dr'
p362
sba(idata_structure
Node
p363
(dp364
g4
F30.613322
sg5
L193L
sg6
F-96.338831420000005
sg7
S'Rudder'
p365
sba(idata_structure
Node
p366
(dp367
g4
F30.598077660000001
sg5
L195L
sg6
F-96.306876919999993
sg7
S'Doux Chene/Valley View'
p368
sba(idata_structure
Node
p369
(dp370
g4
F30.599673580000001
sg5
L196L
sg6
F-96.30535476
sg7
S'Brookwood'
p371
sba(idata_structure
Node
p372
(dp373
g4
F30.5959909
sg5
L197L
sg6
F-96.301543339999995
sg7
S'Airline'
p374
sba(idata_structure
Node
p375
(dp376
g4
F30.595158080000001
sg5
L198L
sg6
F-96.300121770000004
sg7
S'Cambridge Court'
p377
sba(idata_structure
Node
p378
(dp379
g4
F30.593666769999999
sg5
L199L
sg6
F-96.295788659999999
sg7
S'Peppertree'
p380
sba(idata_structure
Node
p381
(dp382
g4
F30.58606807
sg5
L201L
sg6
F-96.292241439999998
sg7
S'Bluestem'
p383
sba(idata_structure
Node
p384
(dp385
g4
F30.58448959
sg5
L202L
sg6
F-96.295203939999993
sg7
S'Adrienne'
p386
sba(idata_structure
Node
p387
(dp388
g4
F30.582999619999999
sg5
L203L
sg6
F-96.299600080000005
sg7
S'Ponderosa @ Brothers Pond Park'
p389
sba(idata_structure
Node
p390
(dp391
g4
F30.586819089999999
sg5
L204L
sg6
F-96.305319890000007
sg7
S'Van Horn'
p392
sba(idata_structure
Node
p393
(dp394
g4
F30.590502780000001
sg5
L205L
sg6
F-96.308966670000004
sg7
S'Rio Grande @ Balcones'
p395
sba(idata_structure
Node
p396
(dp397
g4
F30.609291979999998
sg5
L206L
sg6
F-96.353536629999994
sg7
S'Rural Public Health'
p398
sba(idata_structure
Node
p399
(dp400
g4
F30.597849669999999
sg5
L208L
sg6
F-96.330995340000001
sg7
S'Oney Hervey'
p401
sba(idata_structure
Node
p402
(dp403
g4
F30.59929404
sg5
L209L
sg6
F-96.326469110000005
sg7
S'Willow Rock'
p404
sba(idata_structure
Node
p405
(dp406
g4
F30.597369560000001
sg5
L210L
sg6
F-96.324904040000007
sg7
S'University Park'
p407
sba(idata_structure
Node
p408
(dp409
g4
F30.595644440000001
sg5
L211L
sg6
F-96.322725000000005
sg7
S'Yellow House'
p410
sba(idata_structure
Node
p411
(dp412
g4
F30.5975
sg5
L212L
sg6
F-96.321163889999994
sg7
S'Colony'
p413
sba(idata_structure
Node
p414
(dp415
g4
F30.593516560000001
sg5
L214L
sg6
F-96.326800370000001
sg7
S'Parkway Circle'
p416
sba(idata_structure
Node
p417
(dp418
g4
F30.59188889
sg5
L215L
sg6
F-96.329511109999999
sg7
S'The Woodlands'
p419
sba(idata_structure
Node
p420
(dp421
g4
F30.615538839999999
sg5
L216L
sg6
F-96.314022320000007
sg7
S'265 Holleman Dr E'
p422
sba(idata_structure
Node
p423
(dp424
g4
F30.59777725
sg5
L218L
sg6
F-96.39537507
sg7
S'Health Science Center'
p425
sba(idata_structure
Node
p426
(dp427
g4
F30.624286869999999
sg5
L219L
sg6
F-96.315451940000003
sg7
S'810 Dominik Dr'
p428
sba(idata_structure
Node
p429
(dp430
g4
F30.594431199999999
sg5
L220L
sg6
F-96.339857359999996
sg7
S'Jones Butler Rd'
p431
sba.