(lp1
(idata_structure
WalkingTime
p2
(dp3
S'start_loc_id'
p4
L115L
sS'end_loc_id'
p5
L116L
sS'time'
p6
L705L
sba(idata_structure
WalkingTime
p7
(dp8
g4
L116L
sg5
L10L
sg6
L907L
sba(idata_structure
WalkingTime
p9
(dp10
g4
L10L
sg5
L206L
sg6
L1029L
sba(idata_structure
WalkingTime
p11
(dp12
g4
L206L
sg5
L10L
sg6
L1029L
sba(idata_structure
WalkingTime
p13
(dp14
g4
L10L
sg5
L112L
sg6
L880L
sba(idata_structure
WalkingTime
p15
(dp16
g4
L112L
sg5
L115L
sg6
L654L
sba(idata_structure
WalkingTime
p17
(dp18
g4
L115L
sg5
L116L
sg6
L705L
sba(idata_structure
WalkingTime
p19
(dp20
g4
L116L
sg5
L10L
sg6
L907L
sba(idata_structure
WalkingTime
p21
(dp22
g4
L10L
sg5
L206L
sg6
L1029L
sba(idata_structure
WalkingTime
p23
(dp24
g4
L206L
sg5
L10L
sg6
L1029L
sba(idata_structure
WalkingTime
p25
(dp26
g4
L10L
sg5
L112L
sg6
L880L
sba(idata_structure
WalkingTime
p27
(dp28
g4
L112L
sg5
L115L
sg6
L654L
sba(idata_structure
WalkingTime
p29
(dp30
g4
L115L
sg5
L116L
sg6
L705L
sba(idata_structure
WalkingTime
p31
(dp32
g4
L116L
sg5
L10L
sg6
L907L
sba(idata_structure
WalkingTime
p33
(dp34
g4
L10L
sg5
L206L
sg6
L1029L
sba(idata_structure
WalkingTime
p35
(dp36
g4
L206L
sg5
L10L
sg6
L1029L
sba(idata_structure
WalkingTime
p37
(dp38
g4
L10L
sg5
L112L
sg6
L880L
sba(idata_structure
WalkingTime
p39
(dp40
g4
L112L
sg5
L115L
sg6
L654L
sba(idata_structure
WalkingTime
p41
(dp42
g4
L115L
sg5
L116L
sg6
L705L
sba(idata_structure
WalkingTime
p43
(dp44
g4
L116L
sg5
L10L
sg6
L907L
sba(idata_structure
WalkingTime
p45
(dp46
g4
L10L
sg5
L206L
sg6
L1029L
sba(idata_structure
WalkingTime
p47
(dp48
g4
L206L
sg5
L10L
sg6
L1029L
sba(idata_structure
WalkingTime
p49
(dp50
g4
L10L
sg5
L112L
sg6
L880L
sba(idata_structure
WalkingTime
p51
(dp52
g4
L112L
sg5
L115L
sg6
L654L
sba(idata_structure
WalkingTime
p53
(dp54
g4
L115L
sg5
L116L
sg6
L705L
sba(idata_structure
WalkingTime
p55
(dp56
g4
L116L
sg5
L10L
sg6
L907L
sba(idata_structure
WalkingTime
p57
(dp58
g4
L10L
sg5
L206L
sg6
L1029L
sba(idata_structure
WalkingTime
p59
(dp60
g4
L206L
sg5
L10L
sg6
L1029L
sba(idata_structure
WalkingTime
p61
(dp62
g4
L10L
sg5
L112L
sg6
L880L
sba(idata_structure
WalkingTime
p63
(dp64
g4
L112L
sg5
L115L
sg6
L654L
sba(idata_structure
WalkingTime
p65
(dp66
g4
L115L
sg5
L116L
sg6
L705L
sba(idata_structure
WalkingTime
p67
(dp68
g4
L116L
sg5
L10L
sg6
L907L
sba(idata_structure
WalkingTime
p69
(dp70
g4
L10L
sg5
L206L
sg6
L1029L
sba(idata_structure
WalkingTime
p71
(dp72
g4
L206L
sg5
L10L
sg6
L1029L
sba(idata_structure
WalkingTime
p73
(dp74
g4
L10L
sg5
L112L
sg6
L880L
sba(idata_structure
WalkingTime
p75
(dp76
g4
L112L
sg5
L115L
sg6
L654L
sba(idata_structure
WalkingTime
p77
(dp78
g4
L115L
sg5
L116L
sg6
L705L
sba(idata_structure
WalkingTime
p79
(dp80
g4
L116L
sg5
L10L
sg6
L907L
sba(idata_structure
WalkingTime
p81
(dp82
g4
L10L
sg5
L206L
sg6
L1029L
sba(idata_structure
WalkingTime
p83
(dp84
g4
L206L
sg5
L10L
sg6
L1029L
sba(idata_structure
WalkingTime
p85
(dp86
g4
L10L
sg5
L112L
sg6
L880L
sba(idata_structure
WalkingTime
p87
(dp88
g4
L112L
sg5
L115L
sg6
L654L
sba(idata_structure
WalkingTime
p89
(dp90
g4
L115L
sg5
L116L
sg6
L705L
sba(idata_structure
WalkingTime
p91
(dp92
g4
L116L
sg5
L10L
sg6
L907L
sba(idata_structure
WalkingTime
p93
(dp94
g4
L10L
sg5
L206L
sg6
L1029L
sba(idata_structure
WalkingTime
p95
(dp96
g4
L206L
sg5
L10L
sg6
L1029L
sba(idata_structure
WalkingTime
p97
(dp98
g4
L10L
sg5
L112L
sg6
L880L
sba(idata_structure
WalkingTime
p99
(dp100
g4
L112L
sg5
L115L
sg6
L654L
sba(idata_structure
WalkingTime
p101
(dp102
g4
L115L
sg5
L116L
sg6
L705L
sba(idata_structure
WalkingTime
p103
(dp104
g4
L116L
sg5
L10L
sg6
L907L
sba(idata_structure
WalkingTime
p105
(dp106
g4
L10L
sg5
L206L
sg6
L1029L
sba(idata_structure
WalkingTime
p107
(dp108
g4
L206L
sg5
L10L
sg6
L1029L
sba(idata_structure
WalkingTime
p109
(dp110
g4
L10L
sg5
L112L
sg6
L880L
sba(idata_structure
WalkingTime
p111
(dp112
g4
L112L
sg5
L115L
sg6
L654L
sba(idata_structure
WalkingTime
p113
(dp114
g4
L115L
sg5
L116L
sg6
L705L
sba(idata_structure
WalkingTime
p115
(dp116
g4
L116L
sg5
L10L
sg6
L907L
sba(idata_structure
WalkingTime
p117
(dp118
g4
L10L
sg5
L206L
sg6
L1029L
sba(idata_structure
WalkingTime
p119
(dp120
g4
L206L
sg5
L10L
sg6
L1029L
sba(idata_structure
WalkingTime
p121
(dp122
g4
L10L
sg5
L112L
sg6
L880L
sba(idata_structure
WalkingTime
p123
(dp124
g4
L112L
sg5
L115L
sg6
L654L
sba(idata_structure
WalkingTime
p125
(dp126
g4
L115L
sg5
L116L
sg6
L705L
sba(idata_structure
WalkingTime
p127
(dp128
g4
L116L
sg5
L10L
sg6
L907L
sba(idata_structure
WalkingTime
p129
(dp130
g4
L10L
sg5
L206L
sg6
L1029L
sba(idata_structure
WalkingTime
p131
(dp132
g4
L206L
sg5
L10L
sg6
L1029L
sba(idata_structure
WalkingTime
p133
(dp134
g4
L10L
sg5
L112L
sg6
L880L
sba(idata_structure
WalkingTime
p135
(dp136
g4
L112L
sg5
L115L
sg6
L654L
sba(idata_structure
WalkingTime
p137
(dp138
g4
L115L
sg5
L116L
sg6
L705L
sba(idata_structure
WalkingTime
p139
(dp140
g4
L116L
sg5
L10L
sg6
L907L
sba(idata_structure
WalkingTime
p141
(dp142
g4
L10L
sg5
L206L
sg6
L1029L
sba(idata_structure
WalkingTime
p143
(dp144
g4
L206L
sg5
L10L
sg6
L1029L
sba(idata_structure
WalkingTime
p145
(dp146
g4
L10L
sg5
L112L
sg6
L880L
sba(idata_structure
WalkingTime
p147
(dp148
g4
L112L
sg5
L115L
sg6
L654L
sba(idata_structure
WalkingTime
p149
(dp150
g4
L115L
sg5
L116L
sg6
L705L
sba(idata_structure
WalkingTime
p151
(dp152
g4
L116L
sg5
L10L
sg6
L907L
sba(idata_structure
WalkingTime
p153
(dp154
g4
L10L
sg5
L206L
sg6
L1029L
sba(idata_structure
WalkingTime
p155
(dp156
g4
L206L
sg5
L10L
sg6
L1029L
sba(idata_structure
WalkingTime
p157
(dp158
g4
L10L
sg5
L112L
sg6
L880L
sba(idata_structure
WalkingTime
p159
(dp160
g4
L112L
sg5
L115L
sg6
L654L
sba(idata_structure
WalkingTime
p161
(dp162
g4
L115L
sg5
L116L
sg6
L705L
sba(idata_structure
WalkingTime
p163
(dp164
g4
L116L
sg5
L10L
sg6
L907L
sba(idata_structure
WalkingTime
p165
(dp166
g4
L10L
sg5
L206L
sg6
L1029L
sba(idata_structure
WalkingTime
p167
(dp168
g4
L206L
sg5
L10L
sg6
L1029L
sba(idata_structure
WalkingTime
p169
(dp170
g4
L10L
sg5
L112L
sg6
L880L
sba(idata_structure
WalkingTime
p171
(dp172
g4
L112L
sg5
L115L
sg6
L654L
sba(idata_structure
WalkingTime
p173
(dp174
g4
L115L
sg5
L116L
sg6
L705L
sba(idata_structure
WalkingTime
p175
(dp176
g4
L116L
sg5
L10L
sg6
L907L
sba(idata_structure
WalkingTime
p177
(dp178
g4
L10L
sg5
L206L
sg6
L1029L
sba(idata_structure
WalkingTime
p179
(dp180
g4
L206L
sg5
L10L
sg6
L1029L
sba(idata_structure
WalkingTime
p181
(dp182
g4
L10L
sg5
L112L
sg6
L880L
sba(idata_structure
WalkingTime
p183
(dp184
g4
L112L
sg5
L115L
sg6
L654L
sba(idata_structure
WalkingTime
p185
(dp186
g4
L115L
sg5
L116L
sg6
L705L
sba(idata_structure
WalkingTime
p187
(dp188
g4
L116L
sg5
L10L
sg6
L907L
sba(idata_structure
WalkingTime
p189
(dp190
g4
L10L
sg5
L206L
sg6
L1029L
sba(idata_structure
WalkingTime
p191
(dp192
g4
L206L
sg5
L10L
sg6
L1029L
sba(idata_structure
WalkingTime
p193
(dp194
g4
L10L
sg5
L112L
sg6
L880L
sba(idata_structure
WalkingTime
p195
(dp196
g4
L112L
sg5
L115L
sg6
L654L
sba(idata_structure
WalkingTime
p197
(dp198
g4
L10L
sg5
L42L
sg6
L2283L
sba(idata_structure
WalkingTime
p199
(dp200
g4
L42L
sg5
L47L
sg6
L1881L
sba(idata_structure
WalkingTime
p201
(dp202
g4
L47L
sg5
L50L
sg6
L2331L
sba(idata_structure
WalkingTime
p203
(dp204
g4
L50L
sg5
L52L
sg6
L2330L
sba(idata_structure
WalkingTime
p205
(dp206
g4
L52L
sg5
L42L
sg6
L1882L
sba(idata_structure
WalkingTime
p207
(dp208
g4
L42L
sg5
L10L
sg6
L2374L
sba(idata_structure
WalkingTime
p209
(dp210
g4
L10L
sg5
L42L
sg6
L2283L
sba(idata_structure
WalkingTime
p211
(dp212
g4
L42L
sg5
L47L
sg6
L1881L
sba(idata_structure
WalkingTime
p213
(dp214
g4
L47L
sg5
L50L
sg6
L2331L
sba(idata_structure
WalkingTime
p215
(dp216
g4
L50L
sg5
L52L
sg6
L2330L
sba(idata_structure
WalkingTime
p217
(dp218
g4
L52L
sg5
L42L
sg6
L1882L
sba(idata_structure
WalkingTime
p219
(dp220
g4
L42L
sg5
L10L
sg6
L2374L
sba(idata_structure
WalkingTime
p221
(dp222
g4
L10L
sg5
L42L
sg6
L2283L
sba(idata_structure
WalkingTime
p223
(dp224
g4
L42L
sg5
L47L
sg6
L1881L
sba(idata_structure
WalkingTime
p225
(dp226
g4
L47L
sg5
L50L
sg6
L2331L
sba(idata_structure
WalkingTime
p227
(dp228
g4
L50L
sg5
L52L
sg6
L2330L
sba(idata_structure
WalkingTime
p229
(dp230
g4
L52L
sg5
L42L
sg6
L1882L
sba(idata_structure
WalkingTime
p231
(dp232
g4
L42L
sg5
L10L
sg6
L2374L
sba(idata_structure
WalkingTime
p233
(dp234
g4
L10L
sg5
L42L
sg6
L2283L
sba(idata_structure
WalkingTime
p235
(dp236
g4
L42L
sg5
L47L
sg6
L1881L
sba(idata_structure
WalkingTime
p237
(dp238
g4
L47L
sg5
L50L
sg6
L2331L
sba(idata_structure
WalkingTime
p239
(dp240
g4
L50L
sg5
L52L
sg6
L2330L
sba(idata_structure
WalkingTime
p241
(dp242
g4
L52L
sg5
L42L
sg6
L1882L
sba(idata_structure
WalkingTime
p243
(dp244
g4
L42L
sg5
L10L
sg6
L2374L
sba(idata_structure
WalkingTime
p245
(dp246
g4
L10L
sg5
L42L
sg6
L2283L
sba(idata_structure
WalkingTime
p247
(dp248
g4
L42L
sg5
L47L
sg6
L1881L
sba(idata_structure
WalkingTime
p249
(dp250
g4
L47L
sg5
L50L
sg6
L2331L
sba(idata_structure
WalkingTime
p251
(dp252
g4
L50L
sg5
L52L
sg6
L2330L
sba(idata_structure
WalkingTime
p253
(dp254
g4
L52L
sg5
L42L
sg6
L1882L
sba(idata_structure
WalkingTime
p255
(dp256
g4
L42L
sg5
L10L
sg6
L2374L
sba(idata_structure
WalkingTime
p257
(dp258
g4
L10L
sg5
L42L
sg6
L2283L
sba(idata_structure
WalkingTime
p259
(dp260
g4
L42L
sg5
L47L
sg6
L1881L
sba(idata_structure
WalkingTime
p261
(dp262
g4
L47L
sg5
L50L
sg6
L2331L
sba(idata_structure
WalkingTime
p263
(dp264
g4
L50L
sg5
L52L
sg6
L2330L
sba(idata_structure
WalkingTime
p265
(dp266
g4
L52L
sg5
L42L
sg6
L1882L
sba(idata_structure
WalkingTime
p267
(dp268
g4
L42L
sg5
L10L
sg6
L2374L
sba(idata_structure
WalkingTime
p269
(dp270
g4
L10L
sg5
L42L
sg6
L2283L
sba(idata_structure
WalkingTime
p271
(dp272
g4
L42L
sg5
L47L
sg6
L1881L
sba(idata_structure
WalkingTime
p273
(dp274
g4
L47L
sg5
L50L
sg6
L2331L
sba(idata_structure
WalkingTime
p275
(dp276
g4
L50L
sg5
L52L
sg6
L2330L
sba(idata_structure
WalkingTime
p277
(dp278
g4
L52L
sg5
L42L
sg6
L1882L
sba(idata_structure
WalkingTime
p279
(dp280
g4
L42L
sg5
L10L
sg6
L2374L
sba(idata_structure
WalkingTime
p281
(dp282
g4
L10L
sg5
L42L
sg6
L2283L
sba(idata_structure
WalkingTime
p283
(dp284
g4
L42L
sg5
L47L
sg6
L1881L
sba(idata_structure
WalkingTime
p285
(dp286
g4
L47L
sg5
L50L
sg6
L2331L
sba(idata_structure
WalkingTime
p287
(dp288
g4
L50L
sg5
L52L
sg6
L2330L
sba(idata_structure
WalkingTime
p289
(dp290
g4
L52L
sg5
L42L
sg6
L1882L
sba(idata_structure
WalkingTime
p291
(dp292
g4
L42L
sg5
L10L
sg6
L2374L
sba(idata_structure
WalkingTime
p293
(dp294
g4
L10L
sg5
L42L
sg6
L2283L
sba(idata_structure
WalkingTime
p295
(dp296
g4
L42L
sg5
L47L
sg6
L1881L
sba(idata_structure
WalkingTime
p297
(dp298
g4
L47L
sg5
L50L
sg6
L2331L
sba(idata_structure
WalkingTime
p299
(dp300
g4
L50L
sg5
L52L
sg6
L2330L
sba(idata_structure
WalkingTime
p301
(dp302
g4
L52L
sg5
L42L
sg6
L1882L
sba(idata_structure
WalkingTime
p303
(dp304
g4
L42L
sg5
L10L
sg6
L2374L
sba(idata_structure
WalkingTime
p305
(dp306
g4
L10L
sg5
L17L
sg6
L1909L
sba(idata_structure
WalkingTime
p307
(dp308
g4
L17L
sg5
L14L
sg6
L790L
sba(idata_structure
WalkingTime
p309
(dp310
g4
L14L
sg5
L10L
sg6
L1304L
sba(idata_structure
WalkingTime
p311
(dp312
g4
L10L
sg5
L17L
sg6
L1909L
sba(idata_structure
WalkingTime
p313
(dp314
g4
L17L
sg5
L14L
sg6
L790L
sba(idata_structure
WalkingTime
p315
(dp316
g4
L14L
sg5
L10L
sg6
L1304L
sba(idata_structure
WalkingTime
p317
(dp318
g4
L10L
sg5
L17L
sg6
L1909L
sba(idata_structure
WalkingTime
p319
(dp320
g4
L17L
sg5
L14L
sg6
L790L
sba(idata_structure
WalkingTime
p321
(dp322
g4
L14L
sg5
L10L
sg6
L1304L
sba(idata_structure
WalkingTime
p323
(dp324
g4
L10L
sg5
L17L
sg6
L1909L
sba(idata_structure
WalkingTime
p325
(dp326
g4
L17L
sg5
L14L
sg6
L790L
sba(idata_structure
WalkingTime
p327
(dp328
g4
L14L
sg5
L10L
sg6
L1304L
sba(idata_structure
WalkingTime
p329
(dp330
g4
L10L
sg5
L17L
sg6
L1909L
sba(idata_structure
WalkingTime
p331
(dp332
g4
L17L
sg5
L14L
sg6
L790L
sba(idata_structure
WalkingTime
p333
(dp334
g4
L14L
sg5
L10L
sg6
L1304L
sba(idata_structure
WalkingTime
p335
(dp336
g4
L10L
sg5
L17L
sg6
L1909L
sba(idata_structure
WalkingTime
p337
(dp338
g4
L17L
sg5
L14L
sg6
L790L
sba(idata_structure
WalkingTime
p339
(dp340
g4
L14L
sg5
L10L
sg6
L1304L
sba(idata_structure
WalkingTime
p341
(dp342
g4
L10L
sg5
L17L
sg6
L1909L
sba(idata_structure
WalkingTime
p343
(dp344
g4
L17L
sg5
L14L
sg6
L790L
sba(idata_structure
WalkingTime
p345
(dp346
g4
L14L
sg5
L10L
sg6
L1304L
sba(idata_structure
WalkingTime
p347
(dp348
g4
L10L
sg5
L17L
sg6
L1909L
sba(idata_structure
WalkingTime
p349
(dp350
g4
L17L
sg5
L14L
sg6
L790L
sba(idata_structure
WalkingTime
p351
(dp352
g4
L14L
sg5
L10L
sg6
L1304L
sba(idata_structure
WalkingTime
p353
(dp354
g4
L10L
sg5
L17L
sg6
L1909L
sba(idata_structure
WalkingTime
p355
(dp356
g4
L17L
sg5
L14L
sg6
L790L
sba(idata_structure
WalkingTime
p357
(dp358
g4
L14L
sg5
L10L
sg6
L1304L
sba(idata_structure
WalkingTime
p359
(dp360
g4
L10L
sg5
L17L
sg6
L1909L
sba(idata_structure
WalkingTime
p361
(dp362
g4
L17L
sg5
L14L
sg6
L790L
sba(idata_structure
WalkingTime
p363
(dp364
g4
L14L
sg5
L10L
sg6
L1304L
sba(idata_structure
WalkingTime
p365
(dp366
g4
L10L
sg5
L17L
sg6
L1909L
sba(idata_structure
WalkingTime
p367
(dp368
g4
L17L
sg5
L14L
sg6
L790L
sba(idata_structure
WalkingTime
p369
(dp370
g4
L14L
sg5
L10L
sg6
L1304L
sba(idata_structure
WalkingTime
p371
(dp372
g4
L10L
sg5
L17L
sg6
L1909L
sba(idata_structure
WalkingTime
p373
(dp374
g4
L17L
sg5
L14L
sg6
L790L
sba(idata_structure
WalkingTime
p375
(dp376
g4
L14L
sg5
L10L
sg6
L1304L
sba(idata_structure
WalkingTime
p377
(dp378
g4
L10L
sg5
L17L
sg6
L1909L
sba(idata_structure
WalkingTime
p379
(dp380
g4
L17L
sg5
L14L
sg6
L790L
sba(idata_structure
WalkingTime
p381
(dp382
g4
L14L
sg5
L10L
sg6
L1304L
sba(idata_structure
WalkingTime
p383
(dp384
g4
L10L
sg5
L17L
sg6
L1909L
sba(idata_structure
WalkingTime
p385
(dp386
g4
L17L
sg5
L14L
sg6
L790L
sba(idata_structure
WalkingTime
p387
(dp388
g4
L14L
sg5
L10L
sg6
L1304L
sba(idata_structure
WalkingTime
p389
(dp390
g4
L10L
sg5
L17L
sg6
L1909L
sba(idata_structure
WalkingTime
p391
(dp392
g4
L17L
sg5
L14L
sg6
L790L
sba(idata_structure
WalkingTime
p393
(dp394
g4
L14L
sg5
L10L
sg6
L1304L
sba(idata_structure
WalkingTime
p395
(dp396
g4
L10L
sg5
L17L
sg6
L1909L
sba(idata_structure
WalkingTime
p397
(dp398
g4
L17L
sg5
L14L
sg6
L790L
sba(idata_structure
WalkingTime
p399
(dp400
g4
L14L
sg5
L10L
sg6
L1304L
sba(idata_structure
WalkingTime
p401
(dp402
g4
L10L
sg5
L17L
sg6
L1909L
sba(idata_structure
WalkingTime
p403
(dp404
g4
L17L
sg5
L14L
sg6
L790L
sba(idata_structure
WalkingTime
p405
(dp406
g4
L14L
sg5
L10L
sg6
L1304L
sba(idata_structure
WalkingTime
p407
(dp408
g4
L120L
sg5
L180L
sg6
L2179L
sba(idata_structure
WalkingTime
p409
(dp410
g4
L180L
sg5
L96L
sg6
L1075L
sba(idata_structure
WalkingTime
p411
(dp412
g4
L96L
sg5
L100L
sg6
L1034L
sba(idata_structure
WalkingTime
p413
(dp414
g4
L100L
sg5
L120L
sg6
L2202L
sba(idata_structure
WalkingTime
p415
(dp416
g4
L120L
sg5
L180L
sg6
L2179L
sba(idata_structure
WalkingTime
p417
(dp418
g4
L180L
sg5
L96L
sg6
L1075L
sba(idata_structure
WalkingTime
p419
(dp420
g4
L96L
sg5
L100L
sg6
L1034L
sba(idata_structure
WalkingTime
p421
(dp422
g4
L100L
sg5
L120L
sg6
L2202L
sba(idata_structure
WalkingTime
p423
(dp424
g4
L120L
sg5
L180L
sg6
L2179L
sba(idata_structure
WalkingTime
p425
(dp426
g4
L180L
sg5
L96L
sg6
L1075L
sba(idata_structure
WalkingTime
p427
(dp428
g4
L96L
sg5
L100L
sg6
L1034L
sba(idata_structure
WalkingTime
p429
(dp430
g4
L100L
sg5
L120L
sg6
L2202L
sba(idata_structure
WalkingTime
p431
(dp432
g4
L120L
sg5
L180L
sg6
L2179L
sba(idata_structure
WalkingTime
p433
(dp434
g4
L180L
sg5
L96L
sg6
L1075L
sba(idata_structure
WalkingTime
p435
(dp436
g4
L96L
sg5
L100L
sg6
L1034L
sba(idata_structure
WalkingTime
p437
(dp438
g4
L100L
sg5
L120L
sg6
L2202L
sba(idata_structure
WalkingTime
p439
(dp440
g4
L120L
sg5
L180L
sg6
L2179L
sba(idata_structure
WalkingTime
p441
(dp442
g4
L180L
sg5
L96L
sg6
L1075L
sba(idata_structure
WalkingTime
p443
(dp444
g4
L96L
sg5
L100L
sg6
L1034L
sba(idata_structure
WalkingTime
p445
(dp446
g4
L100L
sg5
L120L
sg6
L2202L
sba(idata_structure
WalkingTime
p447
(dp448
g4
L120L
sg5
L180L
sg6
L2179L
sba(idata_structure
WalkingTime
p449
(dp450
g4
L180L
sg5
L96L
sg6
L1075L
sba(idata_structure
WalkingTime
p451
(dp452
g4
L96L
sg5
L100L
sg6
L1034L
sba(idata_structure
WalkingTime
p453
(dp454
g4
L100L
sg5
L120L
sg6
L2202L
sba(idata_structure
WalkingTime
p455
(dp456
g4
L120L
sg5
L180L
sg6
L2179L
sba(idata_structure
WalkingTime
p457
(dp458
g4
L180L
sg5
L96L
sg6
L1075L
sba(idata_structure
WalkingTime
p459
(dp460
g4
L96L
sg5
L100L
sg6
L1034L
sba(idata_structure
WalkingTime
p461
(dp462
g4
L100L
sg5
L120L
sg6
L2202L
sba(idata_structure
WalkingTime
p463
(dp464
g4
L120L
sg5
L180L
sg6
L2179L
sba(idata_structure
WalkingTime
p465
(dp466
g4
L180L
sg5
L96L
sg6
L1075L
sba(idata_structure
WalkingTime
p467
(dp468
g4
L96L
sg5
L100L
sg6
L1034L
sba(idata_structure
WalkingTime
p469
(dp470
g4
L100L
sg5
L120L
sg6
L2202L
sba(idata_structure
WalkingTime
p471
(dp472
g4
L120L
sg5
L180L
sg6
L2179L
sba(idata_structure
WalkingTime
p473
(dp474
g4
L180L
sg5
L96L
sg6
L1075L
sba(idata_structure
WalkingTime
p475
(dp476
g4
L96L
sg5
L100L
sg6
L1034L
sba(idata_structure
WalkingTime
p477
(dp478
g4
L100L
sg5
L120L
sg6
L2202L
sba(idata_structure
WalkingTime
p479
(dp480
g4
L120L
sg5
L134L
sg6
L2416L
sba(idata_structure
WalkingTime
p481
(dp482
g4
L134L
sg5
L140L
sg6
L1398L
sba(idata_structure
WalkingTime
p483
(dp484
g4
L140L
sg5
L101L
sg6
L1190L
sba(idata_structure
WalkingTime
p485
(dp486
g4
L101L
sg5
L94L
sg6
L1122L
sba(idata_structure
WalkingTime
p487
(dp488
g4
L94L
sg5
L120L
sg6
L1401L
sba(idata_structure
WalkingTime
p489
(dp490
g4
L120L
sg5
L134L
sg6
L2416L
sba(idata_structure
WalkingTime
p491
(dp492
g4
L134L
sg5
L140L
sg6
L1398L
sba(idata_structure
WalkingTime
p493
(dp494
g4
L140L
sg5
L101L
sg6
L1190L
sba(idata_structure
WalkingTime
p495
(dp496
g4
L101L
sg5
L94L
sg6
L1122L
sba(idata_structure
WalkingTime
p497
(dp498
g4
L94L
sg5
L120L
sg6
L1401L
sba(idata_structure
WalkingTime
p499
(dp500
g4
L120L
sg5
L134L
sg6
L2416L
sba(idata_structure
WalkingTime
p501
(dp502
g4
L134L
sg5
L140L
sg6
L1398L
sba(idata_structure
WalkingTime
p503
(dp504
g4
L140L
sg5
L101L
sg6
L1190L
sba(idata_structure
WalkingTime
p505
(dp506
g4
L101L
sg5
L94L
sg6
L1122L
sba(idata_structure
WalkingTime
p507
(dp508
g4
L94L
sg5
L120L
sg6
L1401L
sba(idata_structure
WalkingTime
p509
(dp510
g4
L120L
sg5
L134L
sg6
L2416L
sba(idata_structure
WalkingTime
p511
(dp512
g4
L134L
sg5
L140L
sg6
L1398L
sba(idata_structure
WalkingTime
p513
(dp514
g4
L140L
sg5
L101L
sg6
L1190L
sba(idata_structure
WalkingTime
p515
(dp516
g4
L101L
sg5
L94L
sg6
L1122L
sba(idata_structure
WalkingTime
p517
(dp518
g4
L94L
sg5
L120L
sg6
L1401L
sba(idata_structure
WalkingTime
p519
(dp520
g4
L120L
sg5
L134L
sg6
L2416L
sba(idata_structure
WalkingTime
p521
(dp522
g4
L134L
sg5
L140L
sg6
L1398L
sba(idata_structure
WalkingTime
p523
(dp524
g4
L140L
sg5
L101L
sg6
L1190L
sba(idata_structure
WalkingTime
p525
(dp526
g4
L101L
sg5
L94L
sg6
L1122L
sba(idata_structure
WalkingTime
p527
(dp528
g4
L94L
sg5
L120L
sg6
L1401L
sba(idata_structure
WalkingTime
p529
(dp530
g4
L120L
sg5
L134L
sg6
L2416L
sba(idata_structure
WalkingTime
p531
(dp532
g4
L134L
sg5
L140L
sg6
L1398L
sba(idata_structure
WalkingTime
p533
(dp534
g4
L140L
sg5
L101L
sg6
L1190L
sba(idata_structure
WalkingTime
p535
(dp536
g4
L101L
sg5
L94L
sg6
L1122L
sba(idata_structure
WalkingTime
p537
(dp538
g4
L94L
sg5
L120L
sg6
L1401L
sba(idata_structure
WalkingTime
p539
(dp540
g4
L120L
sg5
L134L
sg6
L2416L
sba(idata_structure
WalkingTime
p541
(dp542
g4
L134L
sg5
L140L
sg6
L1398L
sba(idata_structure
WalkingTime
p543
(dp544
g4
L140L
sg5
L101L
sg6
L1190L
sba(idata_structure
WalkingTime
p545
(dp546
g4
L101L
sg5
L94L
sg6
L1122L
sba(idata_structure
WalkingTime
p547
(dp548
g4
L94L
sg5
L120L
sg6
L1401L
sba(idata_structure
WalkingTime
p549
(dp550
g4
L120L
sg5
L134L
sg6
L2416L
sba(idata_structure
WalkingTime
p551
(dp552
g4
L134L
sg5
L140L
sg6
L1398L
sba(idata_structure
WalkingTime
p553
(dp554
g4
L140L
sg5
L101L
sg6
L1190L
sba(idata_structure
WalkingTime
p555
(dp556
g4
L101L
sg5
L94L
sg6
L1122L
sba(idata_structure
WalkingTime
p557
(dp558
g4
L94L
sg5
L120L
sg6
L1401L
sba(idata_structure
WalkingTime
p559
(dp560
g4
L120L
sg5
L134L
sg6
L2416L
sba(idata_structure
WalkingTime
p561
(dp562
g4
L134L
sg5
L140L
sg6
L1398L
sba(idata_structure
WalkingTime
p563
(dp564
g4
L140L
sg5
L101L
sg6
L1190L
sba(idata_structure
WalkingTime
p565
(dp566
g4
L101L
sg5
L94L
sg6
L1122L
sba(idata_structure
WalkingTime
p567
(dp568
g4
L94L
sg5
L120L
sg6
L1401L
sba(idata_structure
WalkingTime
p569
(dp570
g4
L120L
sg5
L156L
sg6
L3573L
sba(idata_structure
WalkingTime
p571
(dp572
g4
L156L
sg5
L91L
sg6
L1571L
sba(idata_structure
WalkingTime
p573
(dp574
g4
L91L
sg5
L93L
sg6
L508L
sba(idata_structure
WalkingTime
p575
(dp576
g4
L93L
sg5
L120L
sg6
L1503L
sba(idata_structure
WalkingTime
p577
(dp578
g4
L120L
sg5
L156L
sg6
L3573L
sba(idata_structure
WalkingTime
p579
(dp580
g4
L156L
sg5
L91L
sg6
L1571L
sba(idata_structure
WalkingTime
p581
(dp582
g4
L91L
sg5
L93L
sg6
L508L
sba(idata_structure
WalkingTime
p583
(dp584
g4
L93L
sg5
L120L
sg6
L1503L
sba(idata_structure
WalkingTime
p585
(dp586
g4
L120L
sg5
L156L
sg6
L3573L
sba(idata_structure
WalkingTime
p587
(dp588
g4
L156L
sg5
L91L
sg6
L1571L
sba(idata_structure
WalkingTime
p589
(dp590
g4
L91L
sg5
L93L
sg6
L508L
sba(idata_structure
WalkingTime
p591
(dp592
g4
L93L
sg5
L120L
sg6
L1503L
sba(idata_structure
WalkingTime
p593
(dp594
g4
L120L
sg5
L156L
sg6
L3573L
sba(idata_structure
WalkingTime
p595
(dp596
g4
L156L
sg5
L91L
sg6
L1571L
sba(idata_structure
WalkingTime
p597
(dp598
g4
L91L
sg5
L93L
sg6
L508L
sba(idata_structure
WalkingTime
p599
(dp600
g4
L93L
sg5
L120L
sg6
L1503L
sba(idata_structure
WalkingTime
p601
(dp602
g4
L120L
sg5
L156L
sg6
L3573L
sba(idata_structure
WalkingTime
p603
(dp604
g4
L156L
sg5
L91L
sg6
L1571L
sba(idata_structure
WalkingTime
p605
(dp606
g4
L91L
sg5
L93L
sg6
L508L
sba(idata_structure
WalkingTime
p607
(dp608
g4
L93L
sg5
L120L
sg6
L1503L
sba(idata_structure
WalkingTime
p609
(dp610
g4
L120L
sg5
L156L
sg6
L3573L
sba(idata_structure
WalkingTime
p611
(dp612
g4
L156L
sg5
L91L
sg6
L1571L
sba(idata_structure
WalkingTime
p613
(dp614
g4
L91L
sg5
L93L
sg6
L508L
sba(idata_structure
WalkingTime
p615
(dp616
g4
L93L
sg5
L120L
sg6
L1503L
sba(idata_structure
WalkingTime
p617
(dp618
g4
L120L
sg5
L156L
sg6
L3573L
sba(idata_structure
WalkingTime
p619
(dp620
g4
L156L
sg5
L91L
sg6
L1571L
sba(idata_structure
WalkingTime
p621
(dp622
g4
L91L
sg5
L93L
sg6
L508L
sba(idata_structure
WalkingTime
p623
(dp624
g4
L93L
sg5
L120L
sg6
L1503L
sba(idata_structure
WalkingTime
p625
(dp626
g4
L120L
sg5
L156L
sg6
L3573L
sba(idata_structure
WalkingTime
p627
(dp628
g4
L156L
sg5
L91L
sg6
L1571L
sba(idata_structure
WalkingTime
p629
(dp630
g4
L91L
sg5
L93L
sg6
L508L
sba(idata_structure
WalkingTime
p631
(dp632
g4
L93L
sg5
L120L
sg6
L1503L
sba(idata_structure
WalkingTime
p633
(dp634
g4
L120L
sg5
L156L
sg6
L3573L
sba(idata_structure
WalkingTime
p635
(dp636
g4
L156L
sg5
L91L
sg6
L1571L
sba(idata_structure
WalkingTime
p637
(dp638
g4
L91L
sg5
L93L
sg6
L508L
sba(idata_structure
WalkingTime
p639
(dp640
g4
L93L
sg5
L120L
sg6
L1503L
sba(idata_structure
WalkingTime
p641
(dp642
g4
L120L
sg5
L208L
sg6
L1783L
sba(idata_structure
WalkingTime
p643
(dp644
g4
L208L
sg5
L210L
sg6
L649L
sba(idata_structure
WalkingTime
p645
(dp646
g4
L210L
sg5
L214L
sg6
L480L
sba(idata_structure
WalkingTime
p647
(dp648
g4
L214L
sg5
L120L
sg6
L2401L
sba(idata_structure
WalkingTime
p649
(dp650
g4
L120L
sg5
L208L
sg6
L1783L
sba(idata_structure
WalkingTime
p651
(dp652
g4
L208L
sg5
L210L
sg6
L649L
sba(idata_structure
WalkingTime
p653
(dp654
g4
L210L
sg5
L214L
sg6
L480L
sba(idata_structure
WalkingTime
p655
(dp656
g4
L214L
sg5
L120L
sg6
L2401L
sba(idata_structure
WalkingTime
p657
(dp658
g4
L120L
sg5
L208L
sg6
L1783L
sba(idata_structure
WalkingTime
p659
(dp660
g4
L208L
sg5
L210L
sg6
L649L
sba(idata_structure
WalkingTime
p661
(dp662
g4
L210L
sg5
L214L
sg6
L480L
sba(idata_structure
WalkingTime
p663
(dp664
g4
L214L
sg5
L120L
sg6
L2401L
sba(idata_structure
WalkingTime
p665
(dp666
g4
L120L
sg5
L208L
sg6
L1783L
sba(idata_structure
WalkingTime
p667
(dp668
g4
L208L
sg5
L210L
sg6
L649L
sba(idata_structure
WalkingTime
p669
(dp670
g4
L210L
sg5
L214L
sg6
L480L
sba(idata_structure
WalkingTime
p671
(dp672
g4
L214L
sg5
L120L
sg6
L2401L
sba(idata_structure
WalkingTime
p673
(dp674
g4
L120L
sg5
L208L
sg6
L1783L
sba(idata_structure
WalkingTime
p675
(dp676
g4
L208L
sg5
L210L
sg6
L649L
sba(idata_structure
WalkingTime
p677
(dp678
g4
L210L
sg5
L214L
sg6
L480L
sba(idata_structure
WalkingTime
p679
(dp680
g4
L214L
sg5
L120L
sg6
L2401L
sba(idata_structure
WalkingTime
p681
(dp682
g4
L120L
sg5
L208L
sg6
L1783L
sba(idata_structure
WalkingTime
p683
(dp684
g4
L208L
sg5
L210L
sg6
L649L
sba(idata_structure
WalkingTime
p685
(dp686
g4
L210L
sg5
L214L
sg6
L480L
sba(idata_structure
WalkingTime
p687
(dp688
g4
L214L
sg5
L120L
sg6
L2401L
sba(idata_structure
WalkingTime
p689
(dp690
g4
L120L
sg5
L208L
sg6
L1783L
sba(idata_structure
WalkingTime
p691
(dp692
g4
L208L
sg5
L210L
sg6
L649L
sba(idata_structure
WalkingTime
p693
(dp694
g4
L210L
sg5
L214L
sg6
L480L
sba(idata_structure
WalkingTime
p695
(dp696
g4
L214L
sg5
L120L
sg6
L2401L
sba(idata_structure
WalkingTime
p697
(dp698
g4
L120L
sg5
L208L
sg6
L1783L
sba(idata_structure
WalkingTime
p699
(dp700
g4
L208L
sg5
L210L
sg6
L649L
sba(idata_structure
WalkingTime
p701
(dp702
g4
L210L
sg5
L214L
sg6
L480L
sba(idata_structure
WalkingTime
p703
(dp704
g4
L214L
sg5
L120L
sg6
L2401L
sba(idata_structure
WalkingTime
p705
(dp706
g4
L120L
sg5
L208L
sg6
L1783L
sba(idata_structure
WalkingTime
p707
(dp708
g4
L208L
sg5
L210L
sg6
L649L
sba(idata_structure
WalkingTime
p709
(dp710
g4
L210L
sg5
L214L
sg6
L480L
sba(idata_structure
WalkingTime
p711
(dp712
g4
L214L
sg5
L120L
sg6
L2401L
sba(idata_structure
WalkingTime
p713
(dp714
g4
L120L
sg5
L195L
sg6
L3141L
sba(idata_structure
WalkingTime
p715
(dp716
g4
L195L
sg5
L199L
sg6
L1057L
sba(idata_structure
WalkingTime
p717
(dp718
g4
L199L
sg5
L203L
sg6
L1214L
sba(idata_structure
WalkingTime
p719
(dp720
g4
L203L
sg5
L120L
sg6
L4302L
sba(idata_structure
WalkingTime
p721
(dp722
g4
L120L
sg5
L195L
sg6
L3141L
sba(idata_structure
WalkingTime
p723
(dp724
g4
L195L
sg5
L199L
sg6
L1057L
sba(idata_structure
WalkingTime
p725
(dp726
g4
L199L
sg5
L203L
sg6
L1214L
sba(idata_structure
WalkingTime
p727
(dp728
g4
L203L
sg5
L120L
sg6
L4302L
sba(idata_structure
WalkingTime
p729
(dp730
g4
L120L
sg5
L195L
sg6
L3141L
sba(idata_structure
WalkingTime
p731
(dp732
g4
L195L
sg5
L199L
sg6
L1057L
sba(idata_structure
WalkingTime
p733
(dp734
g4
L199L
sg5
L203L
sg6
L1214L
sba(idata_structure
WalkingTime
p735
(dp736
g4
L203L
sg5
L120L
sg6
L4302L
sba(idata_structure
WalkingTime
p737
(dp738
g4
L120L
sg5
L195L
sg6
L3141L
sba(idata_structure
WalkingTime
p739
(dp740
g4
L195L
sg5
L199L
sg6
L1057L
sba(idata_structure
WalkingTime
p741
(dp742
g4
L199L
sg5
L203L
sg6
L1214L
sba(idata_structure
WalkingTime
p743
(dp744
g4
L203L
sg5
L120L
sg6
L4302L
sba(idata_structure
WalkingTime
p745
(dp746
g4
L120L
sg5
L195L
sg6
L3141L
sba(idata_structure
WalkingTime
p747
(dp748
g4
L195L
sg5
L199L
sg6
L1057L
sba(idata_structure
WalkingTime
p749
(dp750
g4
L199L
sg5
L203L
sg6
L1214L
sba(idata_structure
WalkingTime
p751
(dp752
g4
L203L
sg5
L120L
sg6
L4302L
sba(idata_structure
WalkingTime
p753
(dp754
g4
L120L
sg5
L195L
sg6
L3141L
sba(idata_structure
WalkingTime
p755
(dp756
g4
L195L
sg5
L199L
sg6
L1057L
sba(idata_structure
WalkingTime
p757
(dp758
g4
L199L
sg5
L203L
sg6
L1214L
sba(idata_structure
WalkingTime
p759
(dp760
g4
L203L
sg5
L120L
sg6
L4302L
sba(idata_structure
WalkingTime
p761
(dp762
g4
L120L
sg5
L195L
sg6
L3141L
sba(idata_structure
WalkingTime
p763
(dp764
g4
L195L
sg5
L199L
sg6
L1057L
sba(idata_structure
WalkingTime
p765
(dp766
g4
L199L
sg5
L203L
sg6
L1214L
sba(idata_structure
WalkingTime
p767
(dp768
g4
L203L
sg5
L120L
sg6
L4302L
sba(idata_structure
WalkingTime
p769
(dp770
g4
L120L
sg5
L195L
sg6
L3141L
sba(idata_structure
WalkingTime
p771
(dp772
g4
L195L
sg5
L199L
sg6
L1057L
sba(idata_structure
WalkingTime
p773
(dp774
g4
L199L
sg5
L203L
sg6
L1214L
sba(idata_structure
WalkingTime
p775
(dp776
g4
L203L
sg5
L120L
sg6
L4302L
sba(idata_structure
WalkingTime
p777
(dp778
g4
L120L
sg5
L195L
sg6
L3141L
sba(idata_structure
WalkingTime
p779
(dp780
g4
L195L
sg5
L199L
sg6
L1057L
sba(idata_structure
WalkingTime
p781
(dp782
g4
L199L
sg5
L203L
sg6
L1214L
sba(idata_structure
WalkingTime
p783
(dp784
g4
L203L
sg5
L120L
sg6
L4302L
sba(idata_structure
WalkingTime
p785
(dp786
g4
L120L
sg5
L123L
sg6
L3541L
sba(idata_structure
WalkingTime
p787
(dp788
g4
L123L
sg5
L126L
sg6
L667L
sba(idata_structure
WalkingTime
p789
(dp790
g4
L126L
sg5
L129L
sg6
L844L
sba(idata_structure
WalkingTime
p791
(dp792
g4
L129L
sg5
L120L
sg6
L4118L
sba(idata_structure
WalkingTime
p793
(dp794
g4
L120L
sg5
L123L
sg6
L3541L
sba(idata_structure
WalkingTime
p795
(dp796
g4
L123L
sg5
L126L
sg6
L667L
sba(idata_structure
WalkingTime
p797
(dp798
g4
L126L
sg5
L129L
sg6
L844L
sba(idata_structure
WalkingTime
p799
(dp800
g4
L129L
sg5
L120L
sg6
L4118L
sba(idata_structure
WalkingTime
p801
(dp802
g4
L120L
sg5
L123L
sg6
L3541L
sba(idata_structure
WalkingTime
p803
(dp804
g4
L123L
sg5
L126L
sg6
L667L
sba(idata_structure
WalkingTime
p805
(dp806
g4
L126L
sg5
L129L
sg6
L844L
sba(idata_structure
WalkingTime
p807
(dp808
g4
L129L
sg5
L120L
sg6
L4118L
sba(idata_structure
WalkingTime
p809
(dp810
g4
L120L
sg5
L123L
sg6
L3541L
sba(idata_structure
WalkingTime
p811
(dp812
g4
L123L
sg5
L126L
sg6
L667L
sba(idata_structure
WalkingTime
p813
(dp814
g4
L126L
sg5
L129L
sg6
L844L
sba(idata_structure
WalkingTime
p815
(dp816
g4
L129L
sg5
L120L
sg6
L4118L
sba(idata_structure
WalkingTime
p817
(dp818
g4
L120L
sg5
L123L
sg6
L3541L
sba(idata_structure
WalkingTime
p819
(dp820
g4
L123L
sg5
L126L
sg6
L667L
sba(idata_structure
WalkingTime
p821
(dp822
g4
L126L
sg5
L129L
sg6
L844L
sba(idata_structure
WalkingTime
p823
(dp824
g4
L129L
sg5
L120L
sg6
L4118L
sba(idata_structure
WalkingTime
p825
(dp826
g4
L120L
sg5
L123L
sg6
L3541L
sba(idata_structure
WalkingTime
p827
(dp828
g4
L123L
sg5
L126L
sg6
L667L
sba(idata_structure
WalkingTime
p829
(dp830
g4
L126L
sg5
L129L
sg6
L844L
sba(idata_structure
WalkingTime
p831
(dp832
g4
L129L
sg5
L120L
sg6
L4118L
sba(idata_structure
WalkingTime
p833
(dp834
g4
L120L
sg5
L123L
sg6
L3541L
sba(idata_structure
WalkingTime
p835
(dp836
g4
L123L
sg5
L126L
sg6
L667L
sba(idata_structure
WalkingTime
p837
(dp838
g4
L126L
sg5
L129L
sg6
L844L
sba(idata_structure
WalkingTime
p839
(dp840
g4
L129L
sg5
L120L
sg6
L4118L
sba(idata_structure
WalkingTime
p841
(dp842
g4
L120L
sg5
L123L
sg6
L3541L
sba(idata_structure
WalkingTime
p843
(dp844
g4
L123L
sg5
L126L
sg6
L667L
sba(idata_structure
WalkingTime
p845
(dp846
g4
L126L
sg5
L129L
sg6
L844L
sba(idata_structure
WalkingTime
p847
(dp848
g4
L129L
sg5
L120L
sg6
L4118L
sba(idata_structure
WalkingTime
p849
(dp850
g4
L120L
sg5
L123L
sg6
L3541L
sba(idata_structure
WalkingTime
p851
(dp852
g4
L123L
sg5
L126L
sg6
L667L
sba(idata_structure
WalkingTime
p853
(dp854
g4
L126L
sg5
L129L
sg6
L844L
sba(idata_structure
WalkingTime
p855
(dp856
g4
L129L
sg5
L120L
sg6
L4118L
sba(idata_structure
WalkingTime
p857
(dp858
g4
L120L
sg5
L169L
sg6
L1321L
sba(idata_structure
WalkingTime
p859
(dp860
g4
L169L
sg5
L186L
sg6
L948L
sba(idata_structure
WalkingTime
p861
(dp862
g4
L186L
sg5
L187L
sg6
L1154L
sba(idata_structure
WalkingTime
p863
(dp864
g4
L187L
sg5
L120L
sg6
L2542L
sba(idata_structure
WalkingTime
p865
(dp866
g4
L120L
sg5
L169L
sg6
L1321L
sba(idata_structure
WalkingTime
p867
(dp868
g4
L169L
sg5
L186L
sg6
L948L
sba(idata_structure
WalkingTime
p869
(dp870
g4
L186L
sg5
L187L
sg6
L1154L
sba(idata_structure
WalkingTime
p871
(dp872
g4
L187L
sg5
L120L
sg6
L2542L
sba(idata_structure
WalkingTime
p873
(dp874
g4
L120L
sg5
L169L
sg6
L1321L
sba(idata_structure
WalkingTime
p875
(dp876
g4
L169L
sg5
L186L
sg6
L948L
sba(idata_structure
WalkingTime
p877
(dp878
g4
L186L
sg5
L187L
sg6
L1154L
sba(idata_structure
WalkingTime
p879
(dp880
g4
L187L
sg5
L120L
sg6
L2542L
sba(idata_structure
WalkingTime
p881
(dp882
g4
L120L
sg5
L169L
sg6
L1321L
sba(idata_structure
WalkingTime
p883
(dp884
g4
L169L
sg5
L186L
sg6
L948L
sba(idata_structure
WalkingTime
p885
(dp886
g4
L186L
sg5
L187L
sg6
L1154L
sba(idata_structure
WalkingTime
p887
(dp888
g4
L187L
sg5
L120L
sg6
L2542L
sba(idata_structure
WalkingTime
p889
(dp890
g4
L120L
sg5
L169L
sg6
L1321L
sba(idata_structure
WalkingTime
p891
(dp892
g4
L169L
sg5
L186L
sg6
L948L
sba(idata_structure
WalkingTime
p893
(dp894
g4
L186L
sg5
L187L
sg6
L1154L
sba(idata_structure
WalkingTime
p895
(dp896
g4
L187L
sg5
L120L
sg6
L2542L
sba(idata_structure
WalkingTime
p897
(dp898
g4
L120L
sg5
L169L
sg6
L1321L
sba(idata_structure
WalkingTime
p899
(dp900
g4
L169L
sg5
L186L
sg6
L948L
sba(idata_structure
WalkingTime
p901
(dp902
g4
L186L
sg5
L187L
sg6
L1154L
sba(idata_structure
WalkingTime
p903
(dp904
g4
L187L
sg5
L120L
sg6
L2542L
sba(idata_structure
WalkingTime
p905
(dp906
g4
L120L
sg5
L169L
sg6
L1321L
sba(idata_structure
WalkingTime
p907
(dp908
g4
L169L
sg5
L186L
sg6
L948L
sba(idata_structure
WalkingTime
p909
(dp910
g4
L186L
sg5
L187L
sg6
L1154L
sba(idata_structure
WalkingTime
p911
(dp912
g4
L187L
sg5
L120L
sg6
L2542L
sba(idata_structure
WalkingTime
p913
(dp914
g4
L120L
sg5
L169L
sg6
L1321L
sba(idata_structure
WalkingTime
p915
(dp916
g4
L169L
sg5
L186L
sg6
L948L
sba(idata_structure
WalkingTime
p917
(dp918
g4
L186L
sg5
L187L
sg6
L1154L
sba(idata_structure
WalkingTime
p919
(dp920
g4
L187L
sg5
L120L
sg6
L2542L
sba(idata_structure
WalkingTime
p921
(dp922
g4
L120L
sg5
L169L
sg6
L1321L
sba(idata_structure
WalkingTime
p923
(dp924
g4
L169L
sg5
L186L
sg6
L948L
sba(idata_structure
WalkingTime
p925
(dp926
g4
L186L
sg5
L187L
sg6
L1154L
sba(idata_structure
WalkingTime
p927
(dp928
g4
L187L
sg5
L120L
sg6
L2542L
sba(idata_structure
WalkingTime
p929
(dp930
g4
L120L
sg5
L169L
sg6
L1321L
sba(idata_structure
WalkingTime
p931
(dp932
g4
L169L
sg5
L186L
sg6
L948L
sba(idata_structure
WalkingTime
p933
(dp934
g4
L186L
sg5
L187L
sg6
L1154L
sba(idata_structure
WalkingTime
p935
(dp936
g4
L187L
sg5
L120L
sg6
L2542L
sba(idata_structure
WalkingTime
p937
(dp938
g4
L120L
sg5
L169L
sg6
L1321L
sba(idata_structure
WalkingTime
p939
(dp940
g4
L169L
sg5
L186L
sg6
L948L
sba(idata_structure
WalkingTime
p941
(dp942
g4
L186L
sg5
L187L
sg6
L1154L
sba(idata_structure
WalkingTime
p943
(dp944
g4
L187L
sg5
L120L
sg6
L2542L
sba(idata_structure
WalkingTime
p945
(dp946
g4
L120L
sg5
L170L
sg6
L1801L
sba(idata_structure
WalkingTime
p947
(dp948
g4
L170L
sg5
L174L
sg6
L1147L
sba(idata_structure
WalkingTime
p949
(dp950
g4
L174L
sg5
L178L
sg6
L1164L
sba(idata_structure
WalkingTime
p951
(dp952
g4
L178L
sg5
L120L
sg6
L1792L
sba(idata_structure
WalkingTime
p953
(dp954
g4
L120L
sg5
L170L
sg6
L1801L
sba(idata_structure
WalkingTime
p955
(dp956
g4
L170L
sg5
L174L
sg6
L1147L
sba(idata_structure
WalkingTime
p957
(dp958
g4
L174L
sg5
L178L
sg6
L1164L
sba(idata_structure
WalkingTime
p959
(dp960
g4
L178L
sg5
L120L
sg6
L1792L
sba(idata_structure
WalkingTime
p961
(dp962
g4
L120L
sg5
L170L
sg6
L1801L
sba(idata_structure
WalkingTime
p963
(dp964
g4
L170L
sg5
L174L
sg6
L1147L
sba(idata_structure
WalkingTime
p965
(dp966
g4
L174L
sg5
L178L
sg6
L1164L
sba(idata_structure
WalkingTime
p967
(dp968
g4
L178L
sg5
L120L
sg6
L1792L
sba(idata_structure
WalkingTime
p969
(dp970
g4
L120L
sg5
L170L
sg6
L1801L
sba(idata_structure
WalkingTime
p971
(dp972
g4
L170L
sg5
L174L
sg6
L1147L
sba(idata_structure
WalkingTime
p973
(dp974
g4
L174L
sg5
L178L
sg6
L1164L
sba(idata_structure
WalkingTime
p975
(dp976
g4
L178L
sg5
L120L
sg6
L1792L
sba(idata_structure
WalkingTime
p977
(dp978
g4
L120L
sg5
L170L
sg6
L1801L
sba(idata_structure
WalkingTime
p979
(dp980
g4
L170L
sg5
L174L
sg6
L1147L
sba(idata_structure
WalkingTime
p981
(dp982
g4
L174L
sg5
L178L
sg6
L1164L
sba(idata_structure
WalkingTime
p983
(dp984
g4
L178L
sg5
L120L
sg6
L1792L
sba(idata_structure
WalkingTime
p985
(dp986
g4
L120L
sg5
L170L
sg6
L1801L
sba(idata_structure
WalkingTime
p987
(dp988
g4
L170L
sg5
L174L
sg6
L1147L
sba(idata_structure
WalkingTime
p989
(dp990
g4
L174L
sg5
L178L
sg6
L1164L
sba(idata_structure
WalkingTime
p991
(dp992
g4
L178L
sg5
L120L
sg6
L1792L
sba(idata_structure
WalkingTime
p993
(dp994
g4
L120L
sg5
L170L
sg6
L1801L
sba(idata_structure
WalkingTime
p995
(dp996
g4
L170L
sg5
L174L
sg6
L1147L
sba(idata_structure
WalkingTime
p997
(dp998
g4
L174L
sg5
L178L
sg6
L1164L
sba(idata_structure
WalkingTime
p999
(dp1000
g4
L178L
sg5
L120L
sg6
L1792L
sba(idata_structure
WalkingTime
p1001
(dp1002
g4
L120L
sg5
L170L
sg6
L1801L
sba(idata_structure
WalkingTime
p1003
(dp1004
g4
L170L
sg5
L174L
sg6
L1147L
sba(idata_structure
WalkingTime
p1005
(dp1006
g4
L174L
sg5
L178L
sg6
L1164L
sba(idata_structure
WalkingTime
p1007
(dp1008
g4
L178L
sg5
L120L
sg6
L1792L
sba(idata_structure
WalkingTime
p1009
(dp1010
g4
L120L
sg5
L170L
sg6
L1801L
sba(idata_structure
WalkingTime
p1011
(dp1012
g4
L170L
sg5
L174L
sg6
L1147L
sba(idata_structure
WalkingTime
p1013
(dp1014
g4
L174L
sg5
L178L
sg6
L1164L
sba(idata_structure
WalkingTime
p1015
(dp1016
g4
L178L
sg5
L120L
sg6
L1792L
sba(idata_structure
WalkingTime
p1017
(dp1018
g4
L120L
sg5
L170L
sg6
L1801L
sba(idata_structure
WalkingTime
p1019
(dp1020
g4
L170L
sg5
L174L
sg6
L1147L
sba(idata_structure
WalkingTime
p1021
(dp1022
g4
L174L
sg5
L178L
sg6
L1164L
sba(idata_structure
WalkingTime
p1023
(dp1024
g4
L178L
sg5
L120L
sg6
L1792L
sba.